; Function Attrs: mustprogress uwtable
define void @_ZN5boost4json6stringC2EPKcmNS0_11storage_ptrE(ptr noundef nonnull align 8 dereferenceable(24) %0, ptr nocapture noundef readonly %1, i64 noundef %2, ptr nocapture noundef %3) unnamed_addr #5 align 2 personality ptr @__gxx_personality_v0 {
  %5 = load i64, ptr %3, align 8, !tbaa !11
  store i64 0, ptr %3, align 8, !tbaa !11
  store i64 %5, ptr %0, align 8, !tbaa !17
  %6 = getelementptr inbounds nuw i8, ptr %0, i64 8
  tail call void @_ZN5boost4json6detail11string_implC1Ev(ptr noundef nonnull align 8 dereferenceable(16) %6) #48
  %7 = invoke noundef ptr @_ZN5boost4json6detail11string_impl6assignEmRKNS0_11storage_ptrE(ptr noundef nonnull align 8 dereferenceable(16) %6, i64 noundef %2, ptr noundef nonnull align 8 dereferenceable(24) %0)
          to label %.noexc unwind label %10

.noexc:                                           ; preds = %4
  %8 = icmp eq i64 %2, 0
  br i1 %8, label %_ZN5boost4json6string6assignEPKcm.exit, label %9

9:                                                ; preds = %.noexc
  tail call void @llvm.memcpy.p0.p0.i64(ptr align 1 %7, ptr readonly align 1 %1, i64 %2, i1 false)
  br label %_ZN5boost4json6string6assignEPKcm.exit

_ZN5boost4json6string6assignEPKcm.exit:           ; preds = %9, %.noexc
  ret void

10:                                               ; preds = %4
  %11 = landingpad { ptr, i32 }
          cleanup
  %12 = load i64, ptr %0, align 8, !tbaa !17
  %13 = and i64 %12, 1
  %.not.i.i = icmp eq i64 %13, 0
  br i1 %.not.i.i, label %_ZN5boost4json11storage_ptrD2Ev.exit, label %14

14:                                               ; preds = %10
  %15 = and i64 %12, -4
  %16 = inttoptr i64 %15 to ptr
  %17 = getelementptr inbounds nuw i8, ptr %16, i64 8
  %18 = atomicrmw sub ptr %17, i64 1 acq_rel, align 8
  %19 = icmp ne i64 %18, 1
  %20 = icmp eq i64 %15, 0
  %or.cond.i.i = or i1 %20, %19
  br i1 %or.cond.i.i, label %_ZN5boost4json11storage_ptrD2Ev.exit, label %21

21:                                               ; preds = %14
  %22 = load ptr, ptr %16, align 8, !tbaa !19
  %23 = getelementptr inbounds i8, ptr %22, i64 8
  %24 = load ptr, ptr %23, align 8
  tail call void %24(ptr noundef nonnull align 8 dereferenceable(16) %16) #48
  br label %_ZN5boost4json11storage_ptrD2Ev.exit

_ZN5boost4json11storage_ptrD2Ev.exit:             ; preds = %10, %14, %21
  resume { ptr, i32 } %11
}